target datalayout = "e-m:e-p270:32:32-p271:32:32-p272:64:64-i64:64-i128:128-f80:128-n8:16:32:64-S128"
target triple = "x86_64-pc-linux-gnu"

%struct.RBasic = type { i64, i64 }
%struct.st_table = type { i8, i8, i8, i32, ptr, i64, ptr, i64, i64, ptr }

@rb_cHash = external global i64, align 8
@.str.34 = private unnamed_addr constant [21 x i8] c"../internal/object.h\00", align 1

; Function Attrs: inlinehint nounwind sspstrong willreturn memory(none) uwtable
define internal zeroext i1 @RB_IMMEDIATE_P(i64 noundef %0) #1 {
  %2 = alloca i64, align 8
  store i64 %0, ptr %2, align 8, !tbaa !7
  %3 = load i64, ptr %2, align 8, !tbaa !7
  %4 = and i64 %3, 7
  %5 = icmp ne i64 %4, 0
  ret i1 %5
}

; Function Attrs: inlinehint nounwind sspstrong uwtable
define internal nonnull ptr @RHASH_ST_TABLE(i64 noundef %0) #4 {
  %2 = alloca i64, align 8
  store i64 %0, ptr %2, align 8, !tbaa !7
  %3 = load i64, ptr %2, align 8, !tbaa !7
  %4 = add i64 %3, 24
  %5 = inttoptr i64 %4 to ptr
  ret ptr %5
}

; Function Attrs: inlinehint nounwind sspstrong willreturn memory(read) uwtable
define internal i64 @RB_FL_TEST_RAW(i64 noundef %0, i64 noundef %1) #6 {
  %3 = alloca i64, align 8
  %4 = alloca i64, align 8
  store i64 %0, ptr %3, align 8, !tbaa !7
  store i64 %1, ptr %4, align 8, !tbaa !7
  %5 = load i64, ptr %3, align 8, !tbaa !7
  %6 = inttoptr i64 %5 to ptr
  %7 = getelementptr inbounds nuw %struct.RBasic, ptr %6, i32 0, i32 0
  %8 = load i64, ptr %7, align 8, !tbaa !47
  %9 = load i64, ptr %4, align 8, !tbaa !7
  %10 = and i64 %8, %9
  ret i64 %10
}

; Function Attrs: inlinehint nounwind sspstrong willreturn memory(none) uwtable
define internal zeroext i1 @RB_SPECIAL_CONST_P(i64 noundef %0) #1 {
  %2 = alloca i64, align 8
  store i64 %0, ptr %2, align 8, !tbaa !7
  %3 = load i64, ptr %2, align 8, !tbaa !7
  %4 = icmp eq i64 %3, 0
  br i1 %4, label %8, label %5

5:                                                ; preds = %1
  %6 = load i64, ptr %2, align 8, !tbaa !7
  %7 = call zeroext i1 @RB_IMMEDIATE_P(i64 noundef %6) #22
  br label %8

8:                                                ; preds = %5, %1
  %9 = phi i1 [ true, %1 ], [ %7, %5 ]
  ret i1 %9
}

; Function Attrs: inlinehint nounwind sspstrong uwtable
define internal i64 @RHASH_ST_SIZE(i64 noundef %0) #4 {
  %2 = alloca i64, align 8
  store i64 %0, ptr %2, align 8, !tbaa !7
  %3 = load i64, ptr %2, align 8, !tbaa !7
  %4 = call nonnull ptr @RHASH_ST_TABLE(i64 noundef %3)
  %5 = getelementptr inbounds nuw %struct.st_table, ptr %4, i32 0, i32 5
  %6 = load i64, ptr %5, align 8, !tbaa !91
  ret i64 %6
}

; Function Attrs: inlinehint nounwind sspstrong uwtable
define internal i32 @RHASH_AR_TABLE_SIZE_RAW(i64 noundef %0) #4 {
  %2 = alloca i64, align 8
  %3 = alloca i64, align 8
  store i64 %0, ptr %2, align 8, !tbaa !7
  call void @llvm.lifetime.start.p0(i64 8, ptr %3) #23
  %4 = load i64, ptr %2, align 8, !tbaa !7
  %5 = call i64 @RB_FL_TEST_RAW(i64 noundef %4, i64 noundef 983040) #25
  store i64 %5, ptr %3, align 8, !tbaa !7
  %6 = load i64, ptr %3, align 8, !tbaa !7
  %7 = lshr i64 %6, 16
  store i64 %7, ptr %3, align 8, !tbaa !7
  %8 = load i64, ptr %3, align 8, !tbaa !7
  %9 = trunc i64 %8 to i32
  call void @llvm.lifetime.end.p0(i64 8, ptr %3) #23
  ret i32 %9
}

; Function Attrs: inlinehint nounwind sspstrong uwtable
define internal zeroext i1 @RHASH_AR_TABLE_P(i64 noundef %0) #4 {
  %2 = alloca i64, align 8
  store i64 %0, ptr %2, align 8, !tbaa !7
  %3 = load i64, ptr %2, align 8, !tbaa !7
  %4 = call i64 @RB_FL_TEST_RAW(i64 noundef %3, i64 noundef 32768) #25
  %5 = icmp ne i64 %4, 0
  %6 = xor i1 %5, true
  ret i1 %6
}

; Function Attrs: inlinehint nounwind sspstrong uwtable
define internal i64 @rb_obj_written(i64 noundef %0, i64 noundef %1, i64 noundef %2, ptr noundef %3, i32 noundef %4) #4 {
  %6 = alloca i64, align 8
  %7 = alloca i64, align 8
  %8 = alloca i64, align 8
  %9 = alloca ptr, align 8
  %10 = alloca i32, align 4
  store i64 %0, ptr %6, align 8, !tbaa !7
  store i64 %1, ptr %7, align 8, !tbaa !7
  store i64 %2, ptr %8, align 8, !tbaa !7
  store ptr %3, ptr %9, align 8, !tbaa !64
  store i32 %4, ptr %10, align 4, !tbaa !39
  %11 = load i64, ptr %8, align 8, !tbaa !7
  %12 = call zeroext i1 @RB_SPECIAL_CONST_P(i64 noundef %11) #22
  br i1 %12, label %16, label %13

13:                                               ; preds = %5
  %14 = load i64, ptr %6, align 8, !tbaa !7
  %15 = load i64, ptr %8, align 8, !tbaa !7
  call void @rb_gc_writebarrier(i64 noundef %14, i64 noundef %15)
  br label %16

16:                                               ; preds = %13, %5
  %17 = load i64, ptr %6, align 8, !tbaa !7
  ret i64 %17
}

; Function Attrs: inlinehint nounwind sspstrong uwtable
define internal void @RBASIC_SET_CLASS_RAW(i64 noundef %0, i64 noundef %1) #4 {
  %3 = alloca i64, align 8
  %4 = alloca i64, align 8
  %5 = alloca ptr, align 8
  store i64 %0, ptr %3, align 8, !tbaa !7
  store i64 %1, ptr %4, align 8, !tbaa !7
  call void @llvm.lifetime.start.p0(i64 8, ptr %5) #23
  %6 = load i64, ptr %3, align 8, !tbaa !7
  %7 = inttoptr i64 %6 to ptr
  %8 = getelementptr inbounds nuw %struct.RBasic, ptr %7, i32 0, i32 1
  store ptr %8, ptr %5, align 8, !tbaa !40
  %9 = load i64, ptr %4, align 8, !tbaa !7
  %10 = load ptr, ptr %5, align 8, !tbaa !40
  store i64 %9, ptr %10, align 8, !tbaa !7
  call void @llvm.lifetime.end.p0(i64 8, ptr %5) #23
  ret void
}

; Function Attrs: inlinehint nounwind sspstrong uwtable
define internal i64 @RHASH_SIZE(i64 noundef %0) #4 {
  %2 = alloca i64, align 8
  %3 = alloca i64, align 8
  store i64 %0, ptr %3, align 8, !tbaa !7
  %4 = load i64, ptr %3, align 8, !tbaa !7
  %5 = call zeroext i1 @RHASH_AR_TABLE_P(i64 noundef %4)
  br i1 %5, label %6, label %10

6:                                                ; preds = %1
  %7 = load i64, ptr %3, align 8, !tbaa !7
  %8 = call i32 @RHASH_AR_TABLE_SIZE_RAW(i64 noundef %7)
  %9 = zext i32 %8 to i64
  store i64 %9, ptr %2, align 8
  br label %13

10:                                               ; preds = %1
  %11 = load i64, ptr %3, align 8, !tbaa !7
  %12 = call i64 @RHASH_ST_SIZE(i64 noundef %11)
  store i64 %12, ptr %2, align 8
  br label %13

13:                                               ; preds = %10, %6
  %14 = load i64, ptr %2, align 8
  ret i64 %14
}

; Function Attrs: inlinehint nounwind sspstrong uwtable
define internal void @RBASIC_SET_CLASS(i64 noundef %0, i64 noundef %1) #4 {
  %3 = alloca i64, align 8
  %4 = alloca i64, align 8
  %5 = alloca i64, align 8
  store i64 %0, ptr %3, align 8, !tbaa !7
  store i64 %1, ptr %4, align 8, !tbaa !7
  call void @llvm.lifetime.start.p0(i64 8, ptr %5) #23
  %6 = load i64, ptr %3, align 8, !tbaa !7
  %7 = call i64 @RBASIC_CLASS(i64 noundef %6) #25
  store i64 %7, ptr %5, align 8, !tbaa !7
  %8 = load i64, ptr %3, align 8, !tbaa !7
  %9 = load i64, ptr %4, align 8, !tbaa !7
  call void @RBASIC_SET_CLASS_RAW(i64 noundef %8, i64 noundef %9)
  %10 = load i64, ptr %3, align 8, !tbaa !7
  %11 = load i64, ptr %5, align 8, !tbaa !7
  %12 = load i64, ptr %4, align 8, !tbaa !7
  %13 = call i64 @rb_obj_written(i64 noundef %10, i64 noundef %11, i64 noundef %12, ptr noundef @.str.34, i32 noundef 61)
  call void @llvm.lifetime.end.p0(i64 8, ptr %5) #23
  ret void
}

; Function Attrs: inlinehint nounwind sspstrong willreturn memory(read) uwtable
define internal i64 @RBASIC_CLASS(i64 noundef %0) #6 {
  %2 = alloca i64, align 8
  store i64 %0, ptr %2, align 8, !tbaa !7
  %3 = load i64, ptr %2, align 8, !tbaa !7
  %4 = inttoptr i64 %3 to ptr
  %5 = getelementptr inbounds nuw %struct.RBasic, ptr %4, i32 0, i32 1
  %6 = load i64, ptr %5, align 8, !tbaa !42
  ret i64 %6
}

; Function Attrs: inlinehint nounwind sspstrong uwtable
define internal zeroext i1 @RHASH_EMPTY_P(i64 noundef %0) #4 {
  %2 = alloca i64, align 8
  store i64 %0, ptr %2, align 8, !tbaa !7
  %3 = load i64, ptr %2, align 8, !tbaa !7
  %4 = call i64 @RHASH_SIZE(i64 noundef %3)
  %5 = icmp eq i64 %4, 0
  ret i1 %5
}

; Function Attrs: nounwind sspstrong uwtable
define dso_local i64 @rb_extract_keywords(ptr noundef nonnull %0) #0 {
  %2 = alloca i64, align 8
  %3 = alloca ptr, align 8
  %4 = alloca [2 x i64], align 16
  %5 = alloca i64, align 8
  %6 = alloca i32, align 4
  store ptr %0, ptr %3, align 8, !tbaa !40
  call void @llvm.lifetime.start.p0(i64 16, ptr %4) #23
  call void @llvm.memset.p0.i64(ptr align 16 %4, i8 0, i64 16, i1 false)
  call void @llvm.lifetime.start.p0(i64 8, ptr %5) #23
  %7 = load ptr, ptr %3, align 8, !tbaa !40
  %8 = load i64, ptr %7, align 8, !tbaa !7
  store i64 %8, ptr %5, align 8, !tbaa !7
  %9 = load i64, ptr %5, align 8, !tbaa !7
  %10 = call zeroext i1 @RHASH_EMPTY_P(i64 noundef %9)
  br i1 %10, label %11, label %14

11:                                               ; preds = %1
  %12 = load ptr, ptr %3, align 8, !tbaa !40
  store i64 0, ptr %12, align 8, !tbaa !7
  %13 = load i64, ptr %5, align 8, !tbaa !7
  store i64 %13, ptr %2, align 8
  store i32 1, ptr %6, align 4
  br label %36

14:                                               ; preds = %1
  %15 = load i64, ptr %5, align 8, !tbaa !7
  %16 = ptrtoint ptr %4 to i64
  call void @rb_hash_foreach(i64 noundef %15, ptr noundef @separate_symbol, i64 noundef %16)
  %17 = getelementptr [2 x i64], ptr %4, i64 0, i64 1
  %18 = load i64, ptr %17, align 8, !tbaa !7
  %19 = load ptr, ptr %3, align 8, !tbaa !40
  store i64 %18, ptr %19, align 8, !tbaa !7
  %20 = getelementptr [2 x i64], ptr %4, i64 0, i64 1
  %21 = load i64, ptr %20, align 8, !tbaa !7
  %22 = icmp ne i64 %21, 0
  br i1 %22, label %23, label %33

23:                                               ; preds = %14
  %24 = load i64, ptr %5, align 8, !tbaa !7
  %25 = call i64 @RBASIC_CLASS(i64 noundef %24) #25
  %26 = load i64, ptr @rb_cHash, align 8, !tbaa !7
  %27 = icmp ne i64 %25, %26
  br i1 %27, label %28, label %33

28:                                               ; preds = %23
  %29 = getelementptr [2 x i64], ptr %4, i64 0, i64 1
  %30 = load i64, ptr %29, align 8, !tbaa !7
  %31 = load i64, ptr %5, align 8, !tbaa !7
  %32 = call i64 @RBASIC_CLASS(i64 noundef %31) #25
  call void @RBASIC_SET_CLASS(i64 noundef %30, i64 noundef %32)
  br label %33

33:                                               ; preds = %28, %23, %14
  %34 = getelementptr [2 x i64], ptr %4, i64 0, i64 0
  %35 = load i64, ptr %34, align 16, !tbaa !7
  store i64 %35, ptr %2, align 8
  store i32 1, ptr %6, align 4
  br label %36

36:                                               ; preds = %33, %11
  call void @llvm.lifetime.end.p0(i64 8, ptr %5) #23
  call void @llvm.lifetime.end.p0(i64 16, ptr %4) #23
  %37 = load i64, ptr %2, align 8
  ret i64 %37
}