; Function Attrs: nounwind sspstrong uwtable
define dso_local i64 @rb_extract_keywords(ptr noundef nonnull captures(none) %0) local_unnamed_addr #0 {
  %2 = alloca [2 x i64], align 16
  call void @llvm.lifetime.start.p0(i64 16, ptr nonnull %2) #19
  call void @llvm.memset.p0.i64(ptr noundef nonnull align 16 dereferenceable(16) %2, i8 0, i64 16, i1 false)
  %3 = load i64, ptr %0, align 8, !tbaa !29
  %4 = inttoptr i64 %3 to ptr
  %5 = load i64, ptr %4, align 8, !tbaa !35
  %6 = and i64 %5, 32768
  %.not.i.i.i = icmp eq i64 %6, 0
  br i1 %.not.i.i.i, label %7, label %10

7:                                                ; preds = %1
  %8 = lshr i64 %5, 16
  %9 = and i64 %8, 15
  br label %RHASH_EMPTY_P.exit

10:                                               ; preds = %1
  %11 = add i64 %3, 24
  %12 = inttoptr i64 %11 to ptr
  %13 = getelementptr inbounds nuw i8, ptr %12, i64 16
  %14 = load i64, ptr %13, align 8, !tbaa !89
  br label %RHASH_EMPTY_P.exit

RHASH_EMPTY_P.exit:                               ; preds = %7, %10
  %.0.i.i = phi i64 [ %9, %7 ], [ %14, %10 ]
  %15 = icmp eq i64 %.0.i.i, 0
  br i1 %15, label %16, label %17

16:                                               ; preds = %RHASH_EMPTY_P.exit
  store i64 0, ptr %0, align 8, !tbaa !29
  br label %34

17:                                               ; preds = %RHASH_EMPTY_P.exit
  %18 = ptrtoint ptr %2 to i64
  call void @rb_hash_foreach(i64 noundef %3, ptr noundef nonnull @separate_symbol, i64 noundef %18) #19
  %19 = getelementptr inbounds nuw i8, ptr %2, i64 8
  %20 = load i64, ptr %19, align 8, !tbaa !29
  store i64 %20, ptr %0, align 8, !tbaa !29
  %.not = icmp eq i64 %20, 0
  br i1 %.not, label %RBASIC_SET_CLASS.exit, label %21

21:                                               ; preds = %17
  %22 = getelementptr inbounds nuw i8, ptr %4, i64 8
  %23 = load i64, ptr %22, align 8, !tbaa !42
  %24 = load i64, ptr @rb_cHash, align 8, !tbaa !29
  %.not10 = icmp eq i64 %23, %24
  br i1 %.not10, label %RBASIC_SET_CLASS.exit, label %25

25:                                               ; preds = %21
  %26 = inttoptr i64 %20 to ptr
  %27 = getelementptr inbounds nuw i8, ptr %26, i64 8
  store i64 %23, ptr %27, align 8, !tbaa !29
  %28 = icmp eq i64 %23, 0
  %29 = and i64 %23, 7
  %30 = icmp ne i64 %29, 0
  %31 = or i1 %28, %30
  br i1 %31, label %RBASIC_SET_CLASS.exit, label %32

32:                                               ; preds = %25
  call void @rb_gc_writebarrier(i64 noundef %20, i64 noundef %23) #19
  br label %RBASIC_SET_CLASS.exit

RBASIC_SET_CLASS.exit:                            ; preds = %32, %25, %21, %17
  %33 = load i64, ptr %2, align 16, !tbaa !29
  br label %34

34:                                               ; preds = %RBASIC_SET_CLASS.exit, %16
  %.0 = phi i64 [ %3, %16 ], [ %33, %RBASIC_SET_CLASS.exit ]
  call void @llvm.lifetime.end.p0(i64 16, ptr nonnull %2) #19
  ret i64 %.0
}